; ModuleID = '26/994.c'
source_filename = "26/994.c"
target datalayout = "e-m:e-p270:32:32-p271:32:32-p272:64:64-i64:64-f80:128-n8:16:32:64-S128"
target triple = "x86_64-pc-linux-gnu"

; Function Attrs: noinline nounwind uwtable
define dso_local i32 @main() #0 {
  %1 = alloca i32, align 4
  %2 = alloca [102 x i8], align 16
  %3 = alloca i32, align 4
  %4 = alloca i32, align 4
  %5 = alloca i32, align 4
  store i32 0, i32* %1, align 4
  %6 = getelementptr inbounds [102 x i8], [102 x i8]* %2, i64 0, i64 0
  %7 = call i32 (i8*, ...) bitcast (i32 (...)* @gets to i32 (i8*, ...)*)(i8* %6)
  store i32 0, i32* %5, align 4
  br label %8

8:                                                ; preds = %53, %0
  %9 = load i32, i32* %5, align 4
  %10 = icmp slt i32 %9, 100
  br i1 %10, label %11, label %56

11:                                               ; preds = %8
  store i32 0, i32* %4, align 4
  br label %12

12:                                               ; preds = %49, %11
  %13 = load i32, i32* %4, align 4
  %14 = icmp slt i32 %13, 100
  br i1 %14, label %15, label %52

15:                                               ; preds = %12
  %16 = load i32, i32* %4, align 4
  %17 = sext i32 %16 to i64
  %18 = getelementptr inbounds [102 x i8], [102 x i8]* %2, i64 0, i64 %17
  %19 = load i8, i8* %18, align 1
  %20 = sext i8 %19 to i32
  %21 = icmp eq i32 %20, 32
  br i1 %21, label %22, label %48

22:                                               ; preds = %15
  %23 = load i32, i32* %4, align 4
  %24 = add nsw i32 %23, 1
  %25 = sext i32 %24 to i64
  %26 = getelementptr inbounds [102 x i8], [102 x i8]* %2, i64 0, i64 %25
  %27 = load i8, i8* %26, align 1
  %28 = sext i8 %27 to i32
  %29 = icmp eq i32 %28, 32
  br i1 %29, label %30, label %48

30:                                               ; preds = %22
  %31 = load i32, i32* %4, align 4
  store i32 %31, i32* %3, align 4
  br label %32

32:                                               ; preds = %44, %30
  %33 = load i32, i32* %3, align 4
  %34 = icmp slt i32 %33, 100
  br i1 %34, label %35, label %47

35:                                               ; preds = %32
  %36 = load i32, i32* %3, align 4
  %37 = add nsw i32 %36, 1
  %38 = sext i32 %37 to i64
  %39 = getelementptr inbounds [102 x i8], [102 x i8]* %2, i64 0, i64 %38
  %40 = load i8, i8* %39, align 1
  %41 = load i32, i32* %3, align 4
  %42 = sext i32 %41 to i64
  %43 = getelementptr inbounds [102 x i8], [102 x i8]* %2, i64 0, i64 %42
  store i8 %40, i8* %43, align 1
  br label %44

44:                                               ; preds = %35
  %45 = load i32, i32* %3, align 4
  %46 = add nsw i32 %45, 1
  store i32 %46, i32* %3, align 4
  br label %32

47:                                               ; preds = %32
  br label %48

48:                                               ; preds = %47, %22, %15
  br label %49

49:                                               ; preds = %48
  %50 = load i32, i32* %4, align 4
  %51 = add nsw i32 %50, 1
  store i32 %51, i32* %4, align 4
  br label %12

52:                                               ; preds = %12
  br label %53

53:                                               ; preds = %52
  %54 = load i32, i32* %5, align 4
  %55 = add nsw i32 %54, 1
  store i32 %55, i32* %5, align 4
  br label %8

56:                                               ; preds = %8
  %57 = getelementptr inbounds [102 x i8], [102 x i8]* %2, i64 0, i64 0
  %58 = call i32 @puts(i8* %57)
  ret i32 0
}

declare dso_local i32 @gets(...) #1

declare dso_local i32 @puts(i8*) #1


!llvm.module.flags = !{!0}
!llvm.ident = !{!1}

!0 = !{i32 1, !"wchar_size", i32 4}
!1 = !{!"clang version 10.0.0-4ubuntu1 "}
